target datalayout = "e-m:e-p270:32:32-p271:32:32-p272:64:64-i64:64-i128:128-f80:128-n8:16:32:64-S128"
target triple = "x86_64-pc-linux-gnu"

%struct.AVRational = type { i32, i32 }
%struct.AVChannelLayout = type { i32, i32, %union.anon, ptr }
%union.anon = type { i64 }
%struct.InputFilterPriv = type { %struct.InputFilter, %struct.InputFilterOptions, i32, ptr, ptr, ptr, i32, i32, i32, i32, i32, i64, i32, i32, i32, %struct.AVRational, i32, i32, i32, %struct.AVChannelLayout, %struct.AVRational, ptr, i32, ptr, ptr, i32, i32, [9 x i32], i32, %struct.AVDownmixInfo, %struct.anon }
%struct.InputFilter = type { ptr, ptr }
%struct.InputFilterOptions = type { i64, i64, ptr, %struct.AVRational, i32, i32, i32, i32, i32, i32, i32, ptr }
%struct.AVDownmixInfo = type { i32, double, double, double, double, double }
%struct.anon = type { ptr, i64, i64, i32 }
%struct.AVFrame = type { [8 x ptr], [8 x i32], ptr, i32, i32, i32, i32, i32, %struct.AVRational, i64, i64, %struct.AVRational, i32, ptr, i32, i32, [8 x ptr], ptr, i32, ptr, i32, i32, i32, i32, i32, i32, i32, i64, ptr, i32, ptr, ptr, i64, i64, i64, i64, ptr, %struct.AVChannelLayout, i64 }
%struct.AVBufferRef = type { ptr, ptr, i64 }

@.str.117 = private unnamed_addr constant [49 x i8] c"Error while add the frame to buffer source(%s).\0A\00", align 1

; Function Attrs: inlinehint nounwind uwtable
define internal ptr @av_make_error_string(ptr noundef %0, i64 noundef %1, i32 noundef %2) #2 {
  %4 = alloca ptr, align 8
  %5 = alloca i64, align 8
  %6 = alloca i32, align 4
  store ptr %0, ptr %4, align 8, !tbaa !132
  store i64 %1, ptr %5, align 8, !tbaa !253
  store i32 %2, ptr %6, align 4, !tbaa !9
  %7 = load i32, ptr %6, align 4, !tbaa !9
  %8 = load ptr, ptr %4, align 8, !tbaa !132
  %9 = load i64, ptr %5, align 8, !tbaa !253
  %10 = call i32 @av_strerror(i32 noundef %7, ptr noundef %8, i64 noundef %9)
  %11 = load ptr, ptr %4, align 8, !tbaa !132
  ret ptr %11
}

; Function Attrs: nounwind uwtable
define internal void @sub2video_push_ref(ptr noundef %0, i64 noundef %1) #0 {
  %3 = alloca ptr, align 8
  %4 = alloca i64, align 8
  %5 = alloca ptr, align 8
  %6 = alloca i32, align 4
  %7 = alloca [64 x i8], align 1
  store ptr %0, ptr %3, align 8, !tbaa !116
  store i64 %1, ptr %4, align 8, !tbaa !253
  call void @llvm.lifetime.start.p0(i64 8, ptr %5) #14
  %8 = load ptr, ptr %3, align 8, !tbaa !116
  %9 = getelementptr inbounds nuw %struct.InputFilterPriv, ptr %8, i32 0, i32 30
  %10 = getelementptr inbounds nuw %struct.anon, ptr %9, i32 0, i32 0
  %11 = load ptr, ptr %10, align 8, !tbaa !241
  store ptr %11, ptr %5, align 8, !tbaa !342
  call void @llvm.lifetime.start.p0(i64 4, ptr %6) #14
  %12 = load i64, ptr %4, align 8, !tbaa !253
  %13 = load ptr, ptr %5, align 8, !tbaa !342
  %14 = getelementptr inbounds nuw %struct.AVFrame, ptr %13, i32 0, i32 9
  store i64 %12, ptr %14, align 8, !tbaa !216
  %15 = load ptr, ptr %3, align 8, !tbaa !116
  %16 = getelementptr inbounds nuw %struct.InputFilterPriv, ptr %15, i32 0, i32 30
  %17 = getelementptr inbounds nuw %struct.anon, ptr %16, i32 0, i32 1
  store i64 %12, ptr %17, align 8, !tbaa !417
  %18 = load ptr, ptr %3, align 8, !tbaa !116
  %19 = getelementptr inbounds nuw %struct.InputFilterPriv, ptr %18, i32 0, i32 3
  %20 = load ptr, ptr %19, align 8, !tbaa !344
  %21 = load ptr, ptr %5, align 8, !tbaa !342
  %22 = call i32 @av_buffersrc_add_frame_flags(ptr noundef %20, ptr noundef %21, i32 noundef 12)
  store i32 %22, ptr %6, align 4, !tbaa !9
  %23 = load i32, ptr %6, align 4, !tbaa !9
  %24 = icmp ne i32 %23, -541478725
  br i1 %24, label %25, label %36

25:                                               ; preds = %2
  %26 = load i32, ptr %6, align 4, !tbaa !9
  %27 = icmp slt i32 %26, 0
  br i1 %27, label %28, label %36

28:                                               ; preds = %25
  %29 = load ptr, ptr %3, align 8, !tbaa !116
  %30 = getelementptr inbounds nuw %struct.InputFilterPriv, ptr %29, i32 0, i32 0
  %31 = getelementptr inbounds nuw %struct.InputFilter, ptr %30, i32 0, i32 0
  %32 = load ptr, ptr %31, align 8, !tbaa !318
  call void @llvm.memset.p0.i64(ptr align 1 %7, i8 0, i64 64, i1 false)
  %33 = getelementptr inbounds [64 x i8], ptr %7, i64 0, i64 0
  %34 = load i32, ptr %6, align 4, !tbaa !9
  %35 = call ptr @av_make_error_string(ptr noundef %33, i64 noundef 64, i32 noundef %34)
  call void (ptr, i32, ptr, ...) @av_log(ptr noundef %32, i32 noundef 24, ptr noundef @.str.117, ptr noundef %35)
  br label %36

36:                                               ; preds = %28, %25, %2
  call void @llvm.lifetime.end.p0(i64 4, ptr %6) #14
  call void @llvm.lifetime.end.p0(i64 8, ptr %5) #14
  ret void
}

; Function Attrs: nounwind uwtable
define internal void @sub2video_heartbeat(ptr noundef %0, i64 noundef %1, i64 %2) #0 {
  %4 = alloca %struct.AVRational, align 4
  %5 = alloca ptr, align 8
  %6 = alloca i64, align 8
  %7 = alloca ptr, align 8
  %8 = alloca i64, align 8
  %9 = alloca i32, align 4
  store i64 %2, ptr %4, align 4
  store ptr %0, ptr %5, align 8, !tbaa !114
  store i64 %1, ptr %6, align 8, !tbaa !253
  call void @llvm.lifetime.start.p0(i64 8, ptr %7) #14
  %10 = load ptr, ptr %5, align 8, !tbaa !114
  %11 = call ptr @ifp_from_ifilter(ptr noundef %10)
  store ptr %11, ptr %7, align 8, !tbaa !116
  call void @llvm.lifetime.start.p0(i64 8, ptr %8) #14
  %12 = load i64, ptr %6, align 8, !tbaa !253
  %13 = load ptr, ptr %7, align 8, !tbaa !116
  %14 = getelementptr inbounds nuw %struct.InputFilterPriv, ptr %13, i32 0, i32 20
  %15 = load i64, ptr %4, align 4
  %16 = load i64, ptr %14, align 8
  %17 = call i64 @av_rescale_q(i64 noundef %12, i64 %15, i64 %16) #17
  %18 = sub nsw i64 %17, 1
  store i64 %18, ptr %8, align 8, !tbaa !253
  %19 = load i64, ptr %8, align 8, !tbaa !253
  %20 = load ptr, ptr %7, align 8, !tbaa !116
  %21 = getelementptr inbounds nuw %struct.InputFilterPriv, ptr %20, i32 0, i32 30
  %22 = getelementptr inbounds nuw %struct.anon, ptr %21, i32 0, i32 1
  %23 = load i64, ptr %22, align 8, !tbaa !417
  %24 = icmp sle i64 %19, %23
  br i1 %24, label %25, label %26

25:                                               ; preds = %3
  store i32 1, ptr %9, align 4
  br label %47

26:                                               ; preds = %3
  %27 = load i64, ptr %8, align 8, !tbaa !253
  %28 = load ptr, ptr %7, align 8, !tbaa !116
  %29 = getelementptr inbounds nuw %struct.InputFilterPriv, ptr %28, i32 0, i32 30
  %30 = getelementptr inbounds nuw %struct.anon, ptr %29, i32 0, i32 2
  %31 = load i64, ptr %30, align 8, !tbaa !350
  %32 = icmp sge i64 %27, %31
  br i1 %32, label %39, label %33

33:                                               ; preds = %26
  %34 = load ptr, ptr %7, align 8, !tbaa !116
  %35 = getelementptr inbounds nuw %struct.InputFilterPriv, ptr %34, i32 0, i32 30
  %36 = getelementptr inbounds nuw %struct.anon, ptr %35, i32 0, i32 3
  %37 = load i32, ptr %36, align 8, !tbaa !418
  %38 = icmp ne i32 %37, 0
  br i1 %38, label %39, label %43

39:                                               ; preds = %33, %26
  %40 = load ptr, ptr %7, align 8, !tbaa !116
  %41 = load i64, ptr %8, align 8, !tbaa !253
  %42 = add nsw i64 %41, 1
  call void @sub2video_update(ptr noundef %40, i64 noundef %42, ptr noundef null)
  br label %46

43:                                               ; preds = %33
  %44 = load ptr, ptr %7, align 8, !tbaa !116
  %45 = load i64, ptr %8, align 8, !tbaa !253
  call void @sub2video_push_ref(ptr noundef %44, i64 noundef %45)
  br label %46

46:                                               ; preds = %43, %39
  store i32 0, ptr %9, align 4
  br label %47

47:                                               ; preds = %46, %25
  call void @llvm.lifetime.end.p0(i64 8, ptr %8) #14
  call void @llvm.lifetime.end.p0(i64 8, ptr %7) #14
  %48 = load i32, ptr %9, align 4
  switch i32 %48, label %50 [
    i32 0, label %49
    i32 1, label %49
  ]

49:                                               ; preds = %47, %47
  ret void

50:                                               ; preds = %47
  unreachable
}

; Function Attrs: inlinehint nounwind uwtable
define internal ptr @ifp_from_ifilter(ptr noundef %0) #2 {
  %2 = alloca ptr, align 8
  store ptr %0, ptr %2, align 8, !tbaa !114
  %3 = load ptr, ptr %2, align 8, !tbaa !114
  ret ptr %3
}

; Function Attrs: nounwind uwtable
define internal i32 @sub2video_frame(ptr noundef %0, ptr noundef %1, i32 noundef %2) #0 {
  %4 = alloca i32, align 4
  %5 = alloca ptr, align 8
  %6 = alloca ptr, align 8
  %7 = alloca i32, align 4
  %8 = alloca ptr, align 8
  %9 = alloca i32, align 4
  %10 = alloca ptr, align 8
  %11 = alloca i32, align 4
  store ptr %0, ptr %5, align 8, !tbaa !114
  store ptr %1, ptr %6, align 8, !tbaa !342
  store i32 %2, ptr %7, align 4, !tbaa !9
  call void @llvm.lifetime.start.p0(i64 8, ptr %8) #14
  %12 = load ptr, ptr %5, align 8, !tbaa !114
  %13 = call ptr @ifp_from_ifilter(ptr noundef %12)
  store ptr %13, ptr %8, align 8, !tbaa !116
  call void @llvm.lifetime.start.p0(i64 4, ptr %9) #14
  %14 = load i32, ptr %7, align 4, !tbaa !9
  %15 = icmp ne i32 %14, 0
  br i1 %15, label %16, label %38

16:                                               ; preds = %3
  call void @llvm.lifetime.start.p0(i64 8, ptr %10) #14
  %17 = load ptr, ptr %6, align 8, !tbaa !342
  %18 = icmp ne ptr %17, null
  br i1 %18, label %20, label %19

19:                                               ; preds = %16
  store i32 0, ptr %4, align 4
  store i32 1, ptr %11, align 4
  br label %37

20:                                               ; preds = %16
  %21 = call ptr @av_frame_alloc()
  store ptr %21, ptr %10, align 8, !tbaa !342
  %22 = load ptr, ptr %10, align 8, !tbaa !342
  %23 = icmp ne ptr %22, null
  br i1 %23, label %25, label %24

24:                                               ; preds = %20
  store i32 -12, ptr %4, align 4
  store i32 1, ptr %11, align 4
  br label %37

25:                                               ; preds = %20
  %26 = load ptr, ptr %10, align 8, !tbaa !342
  %27 = load ptr, ptr %6, align 8, !tbaa !342
  call void @av_frame_move_ref(ptr noundef %26, ptr noundef %27)
  %28 = load ptr, ptr %8, align 8, !tbaa !116
  %29 = getelementptr inbounds nuw %struct.InputFilterPriv, ptr %28, i32 0, i32 23
  %30 = load ptr, ptr %29, align 8, !tbaa !118
  %31 = call i32 @av_fifo_write(ptr noundef %30, ptr noundef %10, i64 noundef 1)
  store i32 %31, ptr %9, align 4, !tbaa !9
  %32 = load i32, ptr %9, align 4, !tbaa !9
  %33 = icmp slt i32 %32, 0
  br i1 %33, label %34, label %36

34:                                               ; preds = %25
  call void @av_frame_free(ptr noundef %10)
  %35 = load i32, ptr %9, align 4, !tbaa !9
  store i32 %35, ptr %4, align 4
  store i32 1, ptr %11, align 4
  br label %37

36:                                               ; preds = %25
  store i32 0, ptr %4, align 4
  store i32 1, ptr %11, align 4
  br label %37

37:                                               ; preds = %36, %34, %24, %19
  call void @llvm.lifetime.end.p0(i64 8, ptr %10) #14
  br label %111

38:                                               ; preds = %3
  %39 = load ptr, ptr %6, align 8, !tbaa !342
  %40 = icmp ne ptr %39, null
  br i1 %40, label %41, label %55

41:                                               ; preds = %38
  %42 = load ptr, ptr %6, align 8, !tbaa !342
  %43 = getelementptr inbounds nuw %struct.AVFrame, ptr %42, i32 0, i32 16
  %44 = getelementptr inbounds [8 x ptr], ptr %43, i64 0, i64 0
  %45 = load ptr, ptr %44, align 8, !tbaa !180
  %46 = icmp ne ptr %45, null
  br i1 %46, label %55, label %47

47:                                               ; preds = %41
  %48 = load ptr, ptr %5, align 8, !tbaa !114
  %49 = load ptr, ptr %6, align 8, !tbaa !342
  %50 = getelementptr inbounds nuw %struct.AVFrame, ptr %49, i32 0, i32 9
  %51 = load i64, ptr %50, align 8, !tbaa !216
  %52 = load ptr, ptr %6, align 8, !tbaa !342
  %53 = getelementptr inbounds nuw %struct.AVFrame, ptr %52, i32 0, i32 11
  %54 = load i64, ptr %53, align 8
  call void @sub2video_heartbeat(ptr noundef %48, i64 noundef %51, i64 %54)
  store i32 0, ptr %4, align 4
  store i32 1, ptr %11, align 4
  br label %111

55:                                               ; preds = %41, %38
  %56 = load ptr, ptr %6, align 8, !tbaa !342
  %57 = icmp ne ptr %56, null
  br i1 %57, label %71, label %58

58:                                               ; preds = %55
  %59 = load ptr, ptr %8, align 8, !tbaa !116
  %60 = getelementptr inbounds nuw %struct.InputFilterPriv, ptr %59, i32 0, i32 30
  %61 = getelementptr inbounds nuw %struct.anon, ptr %60, i32 0, i32 2
  %62 = load i64, ptr %61, align 8, !tbaa !350
  %63 = icmp slt i64 %62, 9223372036854775807
  br i1 %63, label %64, label %66

64:                                               ; preds = %58
  %65 = load ptr, ptr %8, align 8, !tbaa !116
  call void @sub2video_update(ptr noundef %65, i64 noundef 9223372036854775807, ptr noundef null)
  br label %66

66:                                               ; preds = %64, %58
  %67 = load ptr, ptr %8, align 8, !tbaa !116
  %68 = getelementptr inbounds nuw %struct.InputFilterPriv, ptr %67, i32 0, i32 3
  %69 = load ptr, ptr %68, align 8, !tbaa !344
  %70 = call i32 @av_buffersrc_add_frame(ptr noundef %69, ptr noundef null)
  store i32 %70, ptr %4, align 4
  store i32 1, ptr %11, align 4
  br label %111

71:                                               ; preds = %55
  %72 = load ptr, ptr %6, align 8, !tbaa !342
  %73 = getelementptr inbounds nuw %struct.AVFrame, ptr %72, i32 0, i32 3
  %74 = load i32, ptr %73, align 8, !tbaa !351
  %75 = icmp ne i32 %74, 0
  br i1 %75, label %76, label %80

76:                                               ; preds = %71
  %77 = load ptr, ptr %6, align 8, !tbaa !342
  %78 = getelementptr inbounds nuw %struct.AVFrame, ptr %77, i32 0, i32 3
  %79 = load i32, ptr %78, align 8, !tbaa !351
  br label %84

80:                                               ; preds = %71
  %81 = load ptr, ptr %8, align 8, !tbaa !116
  %82 = getelementptr inbounds nuw %struct.InputFilterPriv, ptr %81, i32 0, i32 13
  %83 = load i32, ptr %82, align 4, !tbaa !243
  br label %84

84:                                               ; preds = %80, %76
  %85 = phi i32 [ %79, %76 ], [ %83, %80 ]
  %86 = load ptr, ptr %8, align 8, !tbaa !116
  %87 = getelementptr inbounds nuw %struct.InputFilterPriv, ptr %86, i32 0, i32 13
  store i32 %85, ptr %87, align 4, !tbaa !243
  %88 = load ptr, ptr %6, align 8, !tbaa !342
  %89 = getelementptr inbounds nuw %struct.AVFrame, ptr %88, i32 0, i32 4
  %90 = load i32, ptr %89, align 4, !tbaa !352
  %91 = icmp ne i32 %90, 0
  br i1 %91, label %92, label %96

92:                                               ; preds = %84
  %93 = load ptr, ptr %6, align 8, !tbaa !342
  %94 = getelementptr inbounds nuw %struct.AVFrame, ptr %93, i32 0, i32 4
  %95 = load i32, ptr %94, align 4, !tbaa !352
  br label %100

96:                                               ; preds = %84
  %97 = load ptr, ptr %8, align 8, !tbaa !116
  %98 = getelementptr inbounds nuw %struct.InputFilterPriv, ptr %97, i32 0, i32 14
  %99 = load i32, ptr %98, align 8, !tbaa !245
  br label %100

100:                                              ; preds = %96, %92
  %101 = phi i32 [ %95, %92 ], [ %99, %96 ]
  %102 = load ptr, ptr %8, align 8, !tbaa !116
  %103 = getelementptr inbounds nuw %struct.InputFilterPriv, ptr %102, i32 0, i32 14
  store i32 %101, ptr %103, align 8, !tbaa !245
  %104 = load ptr, ptr %8, align 8, !tbaa !116
  %105 = load ptr, ptr %6, align 8, !tbaa !342
  %106 = getelementptr inbounds nuw %struct.AVFrame, ptr %105, i32 0, i32 16
  %107 = getelementptr inbounds [8 x ptr], ptr %106, i64 0, i64 0
  %108 = load ptr, ptr %107, align 8, !tbaa !180
  %109 = getelementptr inbounds nuw %struct.AVBufferRef, ptr %108, i32 0, i32 1
  %110 = load ptr, ptr %109, align 8, !tbaa !203
  call void @sub2video_update(ptr noundef %104, i64 noundef -9223372036854775808, ptr noundef %110)
  store i32 0, ptr %4, align 4
  store i32 1, ptr %11, align 4
  br label %111

111:                                              ; preds = %100, %66, %47, %37
  call void @llvm.lifetime.end.p0(i64 4, ptr %9) #14
  call void @llvm.lifetime.end.p0(i64 8, ptr %8) #14
  %112 = load i32, ptr %4, align 4
  ret i32 %112
}