; Function Attrs: nounwind uwtable
define internal fastcc i32 @sub2video_frame(ptr noundef captures(none) %0, ptr noundef %1, i32 noundef range(i32 0, 2) %2) unnamed_addr #0 {
  %4 = alloca [64 x i8], align 1
  %5 = alloca ptr, align 8
  %.not = icmp eq i32 %2, 0
  br i1 %.not, label %16, label %6

6:                                                ; preds = %3
  call void @llvm.lifetime.start.p0(i64 8, ptr nonnull %5) #17
  %.not37 = icmp eq ptr %1, null
  br i1 %.not37, label %15, label %7

7:                                                ; preds = %6
  %8 = tail call ptr @av_frame_alloc() #17
  store ptr %8, ptr %5, align 8, !tbaa !251
  %.not38 = icmp eq ptr %8, null
  br i1 %.not38, label %15, label %9

9:                                                ; preds = %7
  tail call void @av_frame_move_ref(ptr noundef nonnull %8, ptr noundef nonnull %1) #17
  %10 = getelementptr inbounds nuw i8, ptr %0, i64 232
  %11 = load ptr, ptr %10, align 8, !tbaa !100
  %12 = call i32 @av_fifo_write(ptr noundef %11, ptr noundef nonnull %5, i64 noundef 1) #17
  %13 = icmp slt i32 %12, 0
  br i1 %13, label %14, label %15

14:                                               ; preds = %9
  call void @av_frame_free(ptr noundef nonnull %5) #17
  br label %15

15:                                               ; preds = %9, %7, %6, %14
  %.0 = phi i32 [ %12, %14 ], [ 0, %6 ], [ -12, %7 ], [ 0, %9 ]
  call void @llvm.lifetime.end.p0(i64 8, ptr nonnull %5) #17
  br label %sub2video_heartbeat.exit

16:                                               ; preds = %3
  %.not32 = icmp eq ptr %1, null
  br i1 %.not32, label %.critedge, label %17

17:                                               ; preds = %16
  %18 = getelementptr inbounds nuw i8, ptr %1, i64 184
  %19 = load ptr, ptr %18, align 8, !tbaa !211
  %.not33 = icmp eq ptr %19, null
  br i1 %.not33, label %20, label %57

20:                                               ; preds = %17
  %21 = getelementptr inbounds nuw i8, ptr %1, i64 136
  %22 = load i64, ptr %21, align 8, !tbaa !240
  %23 = getelementptr inbounds nuw i8, ptr %1, i64 152
  %24 = load i64, ptr %23, align 8
  %25 = getelementptr inbounds nuw i8, ptr %0, i64 208
  %26 = load i64, ptr %25, align 8
  %27 = tail call i64 @av_rescale_q(i64 noundef %22, i64 %24, i64 %26) #22
  %28 = add nsw i64 %27, -1
  %29 = getelementptr inbounds nuw i8, ptr %0, i64 352
  %30 = load i64, ptr %29, align 8, !tbaa !333
  %.not.i = icmp sgt i64 %28, %30
  br i1 %.not.i, label %31, label %sub2video_heartbeat.exit

31:                                               ; preds = %20
  %32 = getelementptr inbounds nuw i8, ptr %0, i64 360
  %33 = load i64, ptr %32, align 8, !tbaa !334
  %.not11.not.i = icmp sgt i64 %27, %33
  br i1 %.not11.not.i, label %37, label %34

34:                                               ; preds = %31
  %35 = getelementptr inbounds nuw i8, ptr %0, i64 368
  %36 = load i32, ptr %35, align 8, !tbaa !335
  %.not12.i = icmp eq i32 %36, 0
  br i1 %.not12.i, label %38, label %37

37:                                               ; preds = %34, %31
  tail call fastcc void @sub2video_update(ptr noundef nonnull %0, i64 noundef %27, ptr noundef null)
  br label %sub2video_heartbeat.exit

38:                                               ; preds = %34
  call void @llvm.lifetime.start.p0(i64 64, ptr nonnull %4)
  %39 = getelementptr inbounds nuw i8, ptr %0, i64 344
  %40 = load ptr, ptr %39, align 8, !tbaa !278
  %41 = getelementptr inbounds nuw i8, ptr %40, i64 136
  store i64 %28, ptr %41, align 8, !tbaa !240
  store i64 %28, ptr %29, align 8, !tbaa !333
  %42 = getelementptr inbounds nuw i8, ptr %0, i64 96
  %43 = load ptr, ptr %42, align 8, !tbaa !257
  %44 = tail call i32 @av_buffersrc_add_frame_flags(ptr noundef %43, ptr noundef %40, i32 noundef 12) #17
  %45 = icmp ne i32 %44, -541478725
  %46 = icmp slt i32 %44, 0
  %or.cond.i.i = and i1 %45, %46
  br i1 %or.cond.i.i, label %47, label %sub2video_push_ref.exit.i

47:                                               ; preds = %38
  %48 = load ptr, ptr %0, align 8, !tbaa !286
  call void @llvm.memset.p0.i64(ptr noundef nonnull align 1 dereferenceable(64) %4, i8 0, i64 64, i1 false)
  %49 = call i32 @av_strerror(i32 noundef %44, ptr noundef nonnull %4, i64 noundef 64) #17
  call void (ptr, i32, ptr, ...) @av_log(ptr noundef %48, i32 noundef 24, ptr noundef nonnull @.str.117, ptr noundef nonnull %4) #17
  br label %sub2video_push_ref.exit.i

sub2video_push_ref.exit.i:                        ; preds = %47, %38
  call void @llvm.lifetime.end.p0(i64 64, ptr nonnull %4)
  br label %sub2video_heartbeat.exit

.critedge:                                        ; preds = %16
  %50 = getelementptr inbounds nuw i8, ptr %0, i64 360
  %51 = load i64, ptr %50, align 8, !tbaa !334
  %.not34 = icmp eq i64 %51, 9223372036854775807
  br i1 %.not34, label %53, label %52

52:                                               ; preds = %.critedge
  tail call fastcc void @sub2video_update(ptr noundef nonnull %0, i64 noundef 9223372036854775807, ptr noundef null)
  br label %53

53:                                               ; preds = %52, %.critedge
  %54 = getelementptr inbounds nuw i8, ptr %0, i64 96
  %55 = load ptr, ptr %54, align 8, !tbaa !257
  %56 = tail call i32 @av_buffersrc_add_frame(ptr noundef %55, ptr noundef null) #17
  br label %sub2video_heartbeat.exit

57:                                               ; preds = %17
  %58 = getelementptr inbounds nuw i8, ptr %1, i64 104
  %59 = load i32, ptr %58, align 8, !tbaa !229
  %.not35 = icmp eq i32 %59, 0
  br i1 %.not35, label %60, label %63

60:                                               ; preds = %57
  %61 = getelementptr inbounds nuw i8, ptr %0, i64 156
  %62 = load i32, ptr %61, align 4, !tbaa !228
  br label %63

63:                                               ; preds = %57, %60
  %64 = phi i32 [ %62, %60 ], [ %59, %57 ]
  %65 = getelementptr inbounds nuw i8, ptr %0, i64 156
  store i32 %64, ptr %65, align 4, !tbaa !228
  %66 = getelementptr inbounds nuw i8, ptr %1, i64 108
  %67 = load i32, ptr %66, align 4, !tbaa !231
  %.not36 = icmp eq i32 %67, 0
  br i1 %.not36, label %68, label %71

68:                                               ; preds = %63
  %69 = getelementptr inbounds nuw i8, ptr %0, i64 160
  %70 = load i32, ptr %69, align 8, !tbaa !230
  br label %71

71:                                               ; preds = %63, %68
  %72 = phi i32 [ %70, %68 ], [ %67, %63 ]
  %73 = getelementptr inbounds nuw i8, ptr %0, i64 160
  store i32 %72, ptr %73, align 8, !tbaa !230
  %74 = getelementptr inbounds nuw i8, ptr %19, i64 8
  %75 = load ptr, ptr %74, align 8, !tbaa !212
  tail call fastcc void @sub2video_update(ptr noundef nonnull %0, i64 noundef -9223372036854775808, ptr noundef %75)
  br label %sub2video_heartbeat.exit

sub2video_heartbeat.exit:                         ; preds = %sub2video_push_ref.exit.i, %37, %20, %71, %53, %15
  %.1 = phi i32 [ %.0, %15 ], [ 0, %71 ], [ %56, %53 ], [ 0, %20 ], [ 0, %37 ], [ 0, %sub2video_push_ref.exit.i ]
  ret i32 %.1
}